(lp1
(S'Black'
p2
I1
(lp3
(I342
I147
I344
I148
tp4
a(I344
I148
I362
I151
tp5
a(I362
I151
I395
I152
tp6
a(I395
I152
I484
I152
tp7
a(I484
I152
I553
I151
tp8
a(I553
I151
I578
I159
tp9
a(I578
I159
I580
I169
tp10
a(I580
I169
I559
I201
tp11
a(I559
I201
I477
I273
tp12
a(I477
I273
I400
I302
tp13
a(I400
I302
I323
I323
tp14
a(I323
I323
I254
I322
tp15
a(I254
I322
I227
I307
tp16
a(I227
I307
I206
I271
tp17
a(I206
I271
I196
I241
tp18
a(I196
I241
I200
I202
tp19
a(I200
I202
I232
I167
tp20
a(I232
I167
I335
I114
tp21
a(I335
I114
I408
I97
tp22
a(I408
I97
I465
I93
tp23
a(I465
I93
I494
I100
tp24
a(I494
I100
I510
I118
tp25
a(I510
I118
I510
I132
tp26
a(I510
I132
I485
I164
tp27
a(I485
I164
I446
I180
tp28
a(I446
I180
I367
I181
tp29
a(I367
I181
I313
I169
tp30
a(I313
I169
I290
I145
tp31
a(I290
I145
I295
I119
tp32
a(I295
I119
I300
I111
tp33
atp34
a(VRed
p35
I1
(lp36
(I230
I78
I230
I82
tp37
a(I230
I82
I230
I109
tp38
a(I230
I109
I244
I147
tp39
a(I244
I147
I280
I184
tp40
a(I280
I184
I332
I210
tp41
a(I332
I210
I384
I207
tp42
a(I384
I207
I424
I179
tp43
a(I424
I179
I436
I135
tp44
a(I436
I135
I413
I88
tp45
a(I413
I88
I385
I71
tp46
a(I385
I71
I334
I70
tp47
a(I334
I70
I288
I92
tp48
a(I288
I92
I248
I124
tp49
a(I248
I124
I219
I188
tp50
a(I219
I188
I219
I237
tp51
a(I219
I237
I248
I277
tp52
a(I248
I277
I289
I302
tp53
a(I289
I302
I354
I319
tp54
a(I354
I319
I393
I314
tp55
a(I393
I314
I419
I297
tp56
atp57
a.